; ModuleID = '44/18.c'
source_filename = "44/18.c"
target datalayout = "e-m:e-p270:32:32-p271:32:32-p272:64:64-i64:64-f80:128-n8:16:32:64-S128"
target triple = "x86_64-pc-linux-gnu"

@.str = private unnamed_addr constant [3 x i8] c"%d\00", align 1
@.str.1 = private unnamed_addr constant [4 x i8] c"%d\0A\00", align 1

; Function Attrs: noinline nounwind uwtable
define dso_local i32 @reverse(i32 %0) #0 {
  %2 = alloca i32, align 4
  %3 = alloca i32, align 4
  %4 = alloca i32, align 4
  %5 = alloca i32, align 4
  %6 = alloca i32, align 4
  store i32 %0, i32* %3, align 4
  store i32 0, i32* %5, align 4
  %7 = load i32, i32* %3, align 4
  %8 = icmp eq i32 %7, 0
  br i1 %8, label %9, label %10

9:                                                ; preds = %1
  store i32 0, i32* %2, align 4
  br label %60

10:                                               ; preds = %1
  %11 = load i32, i32* %3, align 4
  %12 = icmp sgt i32 %11, 0
  br i1 %12, label %13, label %48

13:                                               ; preds = %10
  store i32 1, i32* %6, align 4
  br label %14

14:                                               ; preds = %20, %13
  %15 = load i32, i32* %3, align 4
  %16 = load i32, i32* %6, align 4
  %17 = sdiv i32 %15, %16
  %18 = icmp sge i32 %17, 10
  br i1 %18, label %19, label %23

19:                                               ; preds = %14
  br label %20

20:                                               ; preds = %19
  %21 = load i32, i32* %6, align 4
  %22 = mul nsw i32 %21, 10
  store i32 %22, i32* %6, align 4
  br label %14

23:                                               ; preds = %14
  store i32 1, i32* %4, align 4
  br label %24

24:                                               ; preds = %42, %23
  %25 = load i32, i32* %6, align 4
  %26 = icmp sge i32 %25, 1
  br i1 %26, label %27, label %47

27:                                               ; preds = %24
  %28 = load i32, i32* %4, align 4
  %29 = load i32, i32* %3, align 4
  %30 = load i32, i32* %6, align 4
  %31 = sdiv i32 %29, %30
  %32 = mul nsw i32 %28, %31
  %33 = load i32, i32* %5, align 4
  %34 = add nsw i32 %33, %32
  store i32 %34, i32* %5, align 4
  %35 = load i32, i32* %6, align 4
  %36 = load i32, i32* %3, align 4
  %37 = load i32, i32* %6, align 4
  %38 = sdiv i32 %36, %37
  %39 = mul nsw i32 %35, %38
  %40 = load i32, i32* %3, align 4
  %41 = sub nsw i32 %40, %39
  store i32 %41, i32* %3, align 4
  br label %42

42:                                               ; preds = %27
  %43 = load i32, i32* %6, align 4
  %44 = sdiv i32 %43, 10
  store i32 %44, i32* %6, align 4
  %45 = load i32, i32* %4, align 4
  %46 = mul nsw i32 %45, 10
  store i32 %46, i32* %4, align 4
  br label %24

47:                                               ; preds = %24
  br label %57

48:                                               ; preds = %10
  %49 = load i32, i32* %3, align 4
  %50 = icmp slt i32 %49, 0
  br i1 %50, label %51, label %56

51:                                               ; preds = %48
  %52 = load i32, i32* %3, align 4
  %53 = mul nsw i32 -1, %52
  %54 = call i32 @reverse(i32 %53)
  %55 = mul nsw i32 -1, %54
  store i32 %55, i32* %5, align 4
  br label %56

56:                                               ; preds = %51, %48
  br label %57

57:                                               ; preds = %56, %47
  br label %58

58:                                               ; preds = %57
  %59 = load i32, i32* %5, align 4
  store i32 %59, i32* %2, align 4
  br label %60

60:                                               ; preds = %58, %9
  %61 = load i32, i32* %2, align 4
  ret i32 %61
}

; Function Attrs: noinline nounwind uwtable
define dso_local void @main() #0 {
  %1 = alloca [6 x i32], align 16
  %2 = alloca i32, align 4
  store i32 0, i32* %2, align 4
  br label %3

3:                                                ; preds = %11, %0
  %4 = load i32, i32* %2, align 4
  %5 = icmp slt i32 %4, 6
  br i1 %5, label %6, label %14

6:                                                ; preds = %3
  %7 = load i32, i32* %2, align 4
  %8 = sext i32 %7 to i64
  %9 = getelementptr inbounds [6 x i32], [6 x i32]* %1, i64 0, i64 %8
  %10 = call i32 (i8*, ...) @__isoc99_scanf(i8* getelementptr inbounds ([3 x i8], [3 x i8]* @.str, i64 0, i64 0), i32* %9)
  br label %11

11:                                               ; preds = %6
  %12 = load i32, i32* %2, align 4
  %13 = add nsw i32 %12, 1
  store i32 %13, i32* %2, align 4
  br label %3

14:                                               ; preds = %3
  store i32 0, i32* %2, align 4
  br label %15

15:                                               ; preds = %25, %14
  %16 = load i32, i32* %2, align 4
  %17 = icmp slt i32 %16, 6
  br i1 %17, label %18, label %28

18:                                               ; preds = %15
  %19 = load i32, i32* %2, align 4
  %20 = sext i32 %19 to i64
  %21 = getelementptr inbounds [6 x i32], [6 x i32]* %1, i64 0, i64 %20
  %22 = load i32, i32* %21, align 4
  %23 = call i32 @reverse(i32 %22)
  %24 = call i32 (i8*, ...) @printf(i8* getelementptr inbounds ([4 x i8], [4 x i8]* @.str.1, i64 0, i64 0), i32 %23)
  br label %25

25:                                               ; preds = %18
  %26 = load i32, i32* %2, align 4
  %27 = add nsw i32 %26, 1
  store i32 %27, i32* %2, align 4
  br label %15

28:                                               ; preds = %15
  ret void
}

declare dso_local i32 @__isoc99_scanf(i8*, ...) #1

declare dso_local i32 @printf(i8*, ...) #1


!llvm.module.flags = !{!0}
!llvm.ident = !{!1}

!0 = !{i32 1, !"wchar_size", i32 4}
!1 = !{!"clang version 10.0.0-4ubuntu1 "}
